; Function Attrs: mustprogress nounwind uwtable
define hidden noundef ptr @_ZNK11UMulHiLNode5ValueEP8PhaseGVN(ptr noundef nonnull align 8 dereferenceable(52) %0, ptr nocapture noundef readonly %1) unnamed_addr #0 align 2 {
  %3 = getelementptr inbounds i8, ptr %0, i64 8
  %4 = load ptr, ptr %3, align 8
  %5 = getelementptr inbounds i8, ptr %4, i64 8
  %6 = load ptr, ptr %5, align 8
  %7 = getelementptr inbounds i8, ptr %1, i64 40
  %8 = load ptr, ptr %7, align 8
  %9 = getelementptr inbounds i8, ptr %6, i64 40
  %10 = load i32, ptr %9, align 8
  %11 = getelementptr inbounds i8, ptr %8, i64 16
  %12 = load ptr, ptr %11, align 8
  %13 = zext i32 %10 to i64
  %14 = getelementptr inbounds ptr, ptr %12, i64 %13
  %15 = load ptr, ptr %14, align 8
  %16 = getelementptr inbounds i8, ptr %4, i64 16
  %17 = load ptr, ptr %16, align 8
  %18 = getelementptr inbounds i8, ptr %17, i64 40
  %19 = load i32, ptr %18, align 8
  %20 = zext i32 %19 to i64
  %21 = getelementptr inbounds ptr, ptr %12, i64 %20
  %22 = load ptr, ptr %21, align 8
  %23 = load ptr, ptr %0, align 8
  %24 = getelementptr inbounds i8, ptr %23, i64 40
  %25 = load ptr, ptr %24, align 8
  %26 = tail call noundef ptr %25(ptr noundef nonnull align 8 dereferenceable(52) %0) #10
  %27 = load ptr, ptr @_ZN4Type3TOPE, align 8
  %28 = icmp eq ptr %27, %15
  %29 = icmp eq ptr %27, %22
  %or.cond16.i = or i1 %28, %29
  br i1 %or.cond16.i, label %_Z10MulHiValuePK4TypeS1_S1_.exit, label %30

30:                                               ; preds = %2
  %31 = icmp eq ptr %15, %26
  %32 = icmp eq ptr %22, %26
  %or.cond.i = or i1 %31, %32
  br i1 %or.cond.i, label %_Z10MulHiValuePK4TypeS1_S1_.exit, label %33

33:                                               ; preds = %30
  %34 = load ptr, ptr @_ZN4Type6BOTTOME, align 8
  %35 = icmp eq ptr %34, %15
  %36 = icmp eq ptr %34, %22
  %or.cond15.i = or i1 %35, %36
  %37 = load ptr, ptr @_ZN8TypeLong4LONGE, align 8
  %spec.select.i = select i1 %or.cond15.i, ptr %26, ptr %37
  br label %_Z10MulHiValuePK4TypeS1_S1_.exit

_Z10MulHiValuePK4TypeS1_S1_.exit:                 ; preds = %2, %30, %33
  %.0.i = phi ptr [ %27, %2 ], [ %26, %30 ], [ %spec.select.i, %33 ]
  ret ptr %.0.i
}